target datalayout = "e-m:e-p270:32:32-p271:32:32-p272:64:64-i64:64-i128:128-f80:128-n8:16:32:64-S128"
target triple = "x86_64-pc-linux-gnu"

; Function Attrs: nounwind uwtable
define hidden i32 @uv__dup2_cloexec(i32 noundef %0, i32 noundef %1) #0 {
  %3 = alloca i32, align 4
  %4 = alloca i32, align 4
  %5 = alloca i32, align 4
  %6 = alloca i32, align 4
  %7 = alloca i32, align 4
  store i32 %0, ptr %4, align 4
  store i32 %1, ptr %5, align 4
  call void @llvm.lifetime.start.p0(i64 4, ptr %6) #11
  %8 = load i32, ptr %4, align 4
  %9 = load i32, ptr %5, align 4
  %10 = call i32 @dup3(i32 noundef %8, i32 noundef %9, i32 noundef 524288) #11
  store i32 %10, ptr %6, align 4
  %11 = load i32, ptr %6, align 4
  %12 = icmp eq i32 %11, -1
  br i1 %12, label %13, label %17

13:                                               ; preds = %2
  %14 = call ptr @__errno_location() #12
  %15 = load i32, ptr %14, align 4
  %16 = sub nsw i32 0, %15
  store i32 %16, ptr %3, align 4
  store i32 1, ptr %7, align 4
  br label %19

17:                                               ; preds = %2
  %18 = load i32, ptr %6, align 4
  store i32 %18, ptr %3, align 4
  store i32 1, ptr %7, align 4
  br label %19

19:                                               ; preds = %17, %13
  call void @llvm.lifetime.end.p0(i64 4, ptr %6) #11
  %20 = load i32, ptr %3, align 4
  ret i32 %20
}