; Function Attrs: nounwind uwtable
define hidden i32 @uv__dup2_cloexec(i32 noundef %0, i32 noundef %1) local_unnamed_addr #0 {
  %3 = tail call i32 @dup3(i32 noundef %0, i32 noundef %1, i32 noundef 524288) #23
  %4 = icmp eq i32 %3, -1
  br i1 %4, label %5, label %9

5:                                                ; preds = %2
  %6 = tail call ptr @__errno_location() #24
  %7 = load i32, ptr %6, align 4
  %8 = sub nsw i32 0, %7
  br label %9

9:                                                ; preds = %2, %5
  %.0 = phi i32 [ %8, %5 ], [ %3, %2 ]
  ret i32 %.0
}